; Function Attrs: nounwind uwtable
define ptr @EVP_KEYMGMT_settable_params(ptr noundef readonly captures(none) %0) local_unnamed_addr #0 {
  %2 = getelementptr inbounds nuw i8, ptr %0, i64 32
  %3 = load ptr, ptr %2, align 8, !tbaa !17
  %4 = tail call ptr @ossl_provider_ctx(ptr noundef %3) #5
  %5 = getelementptr inbounds nuw i8, ptr %0, i64 88
  %6 = load ptr, ptr %5, align 8, !tbaa !37
  %7 = icmp eq ptr %6, null
  br i1 %7, label %10, label %8

8:                                                ; preds = %1
  %9 = tail call ptr %6(ptr noundef %4) #5
  br label %10

10:                                               ; preds = %1, %8
  %.0 = phi ptr [ %9, %8 ], [ null, %1 ]
  ret ptr %.0
}